target datalayout = "e-m:e-p270:32:32-p271:32:32-p272:64:64-i64:64-i128:128-f80:128-n8:16:32:64-S128"
target triple = "x86_64-pc-linux-gnu"

%struct.TupleTableSlotOps = type { i64, ptr, ptr, ptr, ptr, ptr, ptr, ptr, ptr, ptr, ptr, ptr, ptr }
%struct.IncrementalSortState = type { %struct.ScanState, i8, i64, i8, i64, i32, i64, ptr, ptr, ptr, %struct.IncrementalSortInfo, ptr, ptr, i8, ptr }
%struct.ScanState = type { %struct.PlanState, ptr, ptr, ptr }
%struct.PlanState = type { i32, ptr, ptr, ptr, ptr, ptr, ptr, ptr, ptr, ptr, ptr, ptr, ptr, ptr, ptr, ptr, ptr, ptr, i8, ptr, ptr, ptr, ptr, ptr, i8, i8, i8, i8, i8, i8, i8, i8 }
%struct.IncrementalSortInfo = type { %struct.IncrementalSortGroupInfo, %struct.IncrementalSortGroupInfo }
%struct.IncrementalSortGroupInfo = type { i64, i64, i64, i64, i64, i32 }
%struct.Plan = type { i32, i32, double, double, double, i32, i8, i8, i8, i32, ptr, ptr, ptr, ptr, ptr, ptr, ptr }
%struct.Node = type { i32 }

@TTSOpsMinimalTuple = external constant %struct.TupleTableSlotOps, align 8

; Function Attrs: inlinehint nounwind uwtable
define internal ptr @newNode(i64 noundef %0, i32 noundef %1) #2 {
  %3 = alloca i64, align 8
  %4 = alloca i32, align 4
  %5 = alloca ptr, align 8
  store i64 %0, ptr %3, align 8
  store i32 %1, ptr %4, align 4
  call void @llvm.lifetime.start.p0(i64 8, ptr %5) #8
  %6 = load i64, ptr %3, align 8
  %7 = call ptr @palloc0(i64 noundef %6)
  store ptr %7, ptr %5, align 8
  %8 = load i32, ptr %4, align 4
  %9 = load ptr, ptr %5, align 8
  %10 = getelementptr inbounds nuw %struct.Node, ptr %9, i32 0, i32 0
  store i32 %8, ptr %10, align 4
  %11 = load ptr, ptr %5, align 8
  call void @llvm.lifetime.end.p0(i64 8, ptr %5) #8
  ret ptr %11
}

; Function Attrs: nounwind uwtable
define dso_local ptr @ExecInitIncrementalSort(ptr noundef %0, ptr noundef %1, i32 noundef %2) #0 {
  %4 = alloca ptr, align 8
  %5 = alloca ptr, align 8
  %6 = alloca i32, align 4
  %7 = alloca ptr, align 8
  %8 = alloca ptr, align 8
  %9 = alloca ptr, align 8
  store ptr %0, ptr %4, align 8
  store ptr %1, ptr %5, align 8
  store i32 %2, ptr %6, align 4
  call void @llvm.lifetime.start.p0(i64 8, ptr %7) #8
  %10 = call ptr @newNode(i64 noundef 424, i32 noundef 426)
  store ptr %10, ptr %7, align 8
  %11 = load ptr, ptr %4, align 8
  %12 = load ptr, ptr %7, align 8
  %13 = getelementptr inbounds nuw %struct.IncrementalSortState, ptr %12, i32 0, i32 0
  %14 = getelementptr inbounds nuw %struct.ScanState, ptr %13, i32 0, i32 0
  %15 = getelementptr inbounds nuw %struct.PlanState, ptr %14, i32 0, i32 1
  store ptr %11, ptr %15, align 8
  %16 = load ptr, ptr %5, align 8
  %17 = load ptr, ptr %7, align 8
  %18 = getelementptr inbounds nuw %struct.IncrementalSortState, ptr %17, i32 0, i32 0
  %19 = getelementptr inbounds nuw %struct.ScanState, ptr %18, i32 0, i32 0
  %20 = getelementptr inbounds nuw %struct.PlanState, ptr %19, i32 0, i32 2
  store ptr %16, ptr %20, align 8
  %21 = load ptr, ptr %7, align 8
  %22 = getelementptr inbounds nuw %struct.IncrementalSortState, ptr %21, i32 0, i32 0
  %23 = getelementptr inbounds nuw %struct.ScanState, ptr %22, i32 0, i32 0
  %24 = getelementptr inbounds nuw %struct.PlanState, ptr %23, i32 0, i32 3
  store ptr @ExecIncrementalSort, ptr %24, align 8
  %25 = load ptr, ptr %7, align 8
  %26 = getelementptr inbounds nuw %struct.IncrementalSortState, ptr %25, i32 0, i32 5
  store i32 0, ptr %26, align 8
  %27 = load ptr, ptr %7, align 8
  %28 = getelementptr inbounds nuw %struct.IncrementalSortState, ptr %27, i32 0, i32 1
  store i8 0, ptr %28, align 8
  %29 = load ptr, ptr %7, align 8
  %30 = getelementptr inbounds nuw %struct.IncrementalSortState, ptr %29, i32 0, i32 3
  store i8 0, ptr %30, align 8
  %31 = load ptr, ptr %7, align 8
  %32 = getelementptr inbounds nuw %struct.IncrementalSortState, ptr %31, i32 0, i32 4
  store i64 0, ptr %32, align 8
  %33 = load ptr, ptr %7, align 8
  %34 = getelementptr inbounds nuw %struct.IncrementalSortState, ptr %33, i32 0, i32 7
  store ptr null, ptr %34, align 8
  %35 = load ptr, ptr %7, align 8
  %36 = getelementptr inbounds nuw %struct.IncrementalSortState, ptr %35, i32 0, i32 8
  store ptr null, ptr %36, align 8
  %37 = load ptr, ptr %7, align 8
  %38 = getelementptr inbounds nuw %struct.IncrementalSortState, ptr %37, i32 0, i32 11
  store ptr null, ptr %38, align 8
  %39 = load ptr, ptr %7, align 8
  %40 = getelementptr inbounds nuw %struct.IncrementalSortState, ptr %39, i32 0, i32 12
  store ptr null, ptr %40, align 8
  %41 = load ptr, ptr %7, align 8
  %42 = getelementptr inbounds nuw %struct.IncrementalSortState, ptr %41, i32 0, i32 6
  store i64 0, ptr %42, align 8
  %43 = load ptr, ptr %7, align 8
  %44 = getelementptr inbounds nuw %struct.IncrementalSortState, ptr %43, i32 0, i32 9
  store ptr null, ptr %44, align 8
  %45 = load ptr, ptr %7, align 8
  %46 = getelementptr inbounds nuw %struct.IncrementalSortState, ptr %45, i32 0, i32 0
  %47 = getelementptr inbounds nuw %struct.ScanState, ptr %46, i32 0, i32 0
  %48 = getelementptr inbounds nuw %struct.PlanState, ptr %47, i32 0, i32 5
  %49 = load ptr, ptr %48, align 8
  %50 = icmp ne ptr %49, null
  br i1 %50, label %51, label %82

51:                                               ; preds = %3
  call void @llvm.lifetime.start.p0(i64 8, ptr %8) #8
  %52 = load ptr, ptr %7, align 8
  %53 = getelementptr inbounds nuw %struct.IncrementalSortState, ptr %52, i32 0, i32 10
  %54 = getelementptr inbounds nuw %struct.IncrementalSortInfo, ptr %53, i32 0, i32 0
  store ptr %54, ptr %8, align 8
  call void @llvm.lifetime.start.p0(i64 8, ptr %9) #8
  %55 = load ptr, ptr %7, align 8
  %56 = getelementptr inbounds nuw %struct.IncrementalSortState, ptr %55, i32 0, i32 10
  %57 = getelementptr inbounds nuw %struct.IncrementalSortInfo, ptr %56, i32 0, i32 1
  store ptr %57, ptr %9, align 8
  %58 = load ptr, ptr %8, align 8
  %59 = getelementptr inbounds nuw %struct.IncrementalSortGroupInfo, ptr %58, i32 0, i32 0
  store i64 0, ptr %59, align 8
  %60 = load ptr, ptr %8, align 8
  %61 = getelementptr inbounds nuw %struct.IncrementalSortGroupInfo, ptr %60, i32 0, i32 1
  store i64 0, ptr %61, align 8
  %62 = load ptr, ptr %8, align 8
  %63 = getelementptr inbounds nuw %struct.IncrementalSortGroupInfo, ptr %62, i32 0, i32 2
  store i64 0, ptr %63, align 8
  %64 = load ptr, ptr %8, align 8
  %65 = getelementptr inbounds nuw %struct.IncrementalSortGroupInfo, ptr %64, i32 0, i32 3
  store i64 0, ptr %65, align 8
  %66 = load ptr, ptr %8, align 8
  %67 = getelementptr inbounds nuw %struct.IncrementalSortGroupInfo, ptr %66, i32 0, i32 4
  store i64 0, ptr %67, align 8
  %68 = load ptr, ptr %8, align 8
  %69 = getelementptr inbounds nuw %struct.IncrementalSortGroupInfo, ptr %68, i32 0, i32 5
  store i32 0, ptr %69, align 8
  %70 = load ptr, ptr %9, align 8
  %71 = getelementptr inbounds nuw %struct.IncrementalSortGroupInfo, ptr %70, i32 0, i32 0
  store i64 0, ptr %71, align 8
  %72 = load ptr, ptr %9, align 8
  %73 = getelementptr inbounds nuw %struct.IncrementalSortGroupInfo, ptr %72, i32 0, i32 1
  store i64 0, ptr %73, align 8
  %74 = load ptr, ptr %9, align 8
  %75 = getelementptr inbounds nuw %struct.IncrementalSortGroupInfo, ptr %74, i32 0, i32 2
  store i64 0, ptr %75, align 8
  %76 = load ptr, ptr %9, align 8
  %77 = getelementptr inbounds nuw %struct.IncrementalSortGroupInfo, ptr %76, i32 0, i32 3
  store i64 0, ptr %77, align 8
  %78 = load ptr, ptr %9, align 8
  %79 = getelementptr inbounds nuw %struct.IncrementalSortGroupInfo, ptr %78, i32 0, i32 4
  store i64 0, ptr %79, align 8
  %80 = load ptr, ptr %9, align 8
  %81 = getelementptr inbounds nuw %struct.IncrementalSortGroupInfo, ptr %80, i32 0, i32 5
  store i32 0, ptr %81, align 8
  call void @llvm.lifetime.end.p0(i64 8, ptr %9) #8
  call void @llvm.lifetime.end.p0(i64 8, ptr %8) #8
  br label %82

82:                                               ; preds = %51, %3
  %83 = load ptr, ptr %4, align 8
  %84 = getelementptr inbounds nuw %struct.Plan, ptr %83, i32 0, i32 12
  %85 = load ptr, ptr %84, align 8
  %86 = load ptr, ptr %5, align 8
  %87 = load i32, ptr %6, align 4
  %88 = call ptr @ExecInitNode(ptr noundef %85, ptr noundef %86, i32 noundef %87)
  %89 = load ptr, ptr %7, align 8
  %90 = getelementptr inbounds nuw %struct.PlanState, ptr %89, i32 0, i32 9
  store ptr %88, ptr %90, align 8
  %91 = load ptr, ptr %5, align 8
  %92 = load ptr, ptr %7, align 8
  %93 = getelementptr inbounds nuw %struct.IncrementalSortState, ptr %92, i32 0, i32 0
  call void @ExecCreateScanSlotFromOuterPlan(ptr noundef %91, ptr noundef %93, ptr noundef @TTSOpsMinimalTuple)
  %94 = load ptr, ptr %7, align 8
  %95 = getelementptr inbounds nuw %struct.IncrementalSortState, ptr %94, i32 0, i32 0
  %96 = getelementptr inbounds nuw %struct.ScanState, ptr %95, i32 0, i32 0
  call void @ExecInitResultTupleSlotTL(ptr noundef %96, ptr noundef @TTSOpsMinimalTuple)
  %97 = load ptr, ptr %7, align 8
  %98 = getelementptr inbounds nuw %struct.IncrementalSortState, ptr %97, i32 0, i32 0
  %99 = getelementptr inbounds nuw %struct.ScanState, ptr %98, i32 0, i32 0
  %100 = getelementptr inbounds nuw %struct.PlanState, ptr %99, i32 0, i32 17
  store ptr null, ptr %100, align 8
  %101 = load ptr, ptr %7, align 8
  %102 = getelementptr inbounds nuw %struct.PlanState, ptr %101, i32 0, i32 9
  %103 = load ptr, ptr %102, align 8
  %104 = call ptr @ExecGetResultType(ptr noundef %103)
  %105 = call ptr @MakeSingleTupleTableSlot(ptr noundef %104, ptr noundef @TTSOpsMinimalTuple)
  %106 = load ptr, ptr %7, align 8
  %107 = getelementptr inbounds nuw %struct.IncrementalSortState, ptr %106, i32 0, i32 11
  store ptr %105, ptr %107, align 8
  %108 = load ptr, ptr %7, align 8
  %109 = getelementptr inbounds nuw %struct.PlanState, ptr %108, i32 0, i32 9
  %110 = load ptr, ptr %109, align 8
  %111 = call ptr @ExecGetResultType(ptr noundef %110)
  %112 = call ptr @MakeSingleTupleTableSlot(ptr noundef %111, ptr noundef @TTSOpsMinimalTuple)
  %113 = load ptr, ptr %7, align 8
  %114 = getelementptr inbounds nuw %struct.IncrementalSortState, ptr %113, i32 0, i32 12
  store ptr %112, ptr %114, align 8
  %115 = load ptr, ptr %7, align 8
  call void @llvm.lifetime.end.p0(i64 8, ptr %7) #8
  ret ptr %115
}