; Function Attrs: nounwind uwtable
define dso_local noundef ptr @ExecInitIncrementalSort(ptr noundef %0, ptr noundef %1, i32 noundef %2) local_unnamed_addr #0 {
  %4 = tail call noundef ptr @palloc0(i64 noundef 424) #8
  store i32 426, ptr %4, align 4
  %5 = getelementptr inbounds nuw i8, ptr %4, i64 8
  store ptr %0, ptr %5, align 8
  %6 = getelementptr inbounds nuw i8, ptr %4, i64 16
  store ptr %1, ptr %6, align 8
  %7 = getelementptr inbounds nuw i8, ptr %4, i64 24
  store ptr @ExecIncrementalSort, ptr %7, align 8
  %8 = getelementptr inbounds nuw i8, ptr %4, i64 256
  store i32 0, ptr %8, align 8
  %9 = getelementptr inbounds nuw i8, ptr %4, i64 224
  store i8 0, ptr %9, align 8
  %10 = getelementptr inbounds nuw i8, ptr %4, i64 240
  store i8 0, ptr %10, align 8
  %11 = getelementptr inbounds nuw i8, ptr %4, i64 248
  store i64 0, ptr %11, align 8
  %12 = getelementptr inbounds nuw i8, ptr %4, i64 392
  %13 = getelementptr inbounds nuw i8, ptr %4, i64 264
  %14 = getelementptr inbounds nuw i8, ptr %4, i64 40
  tail call void @llvm.memset.p0.i64(ptr noundef nonnull align 8 dereferenceable(32) %13, i8 0, i64 32, i1 false)
  tail call void @llvm.memset.p0.i64(ptr noundef nonnull align 8 dereferenceable(16) %12, i8 0, i64 16, i1 false)
  %15 = load ptr, ptr %14, align 8
  %.not = icmp eq ptr %15, null
  br i1 %.not, label %19, label %16

16:                                               ; preds = %3
  %17 = getelementptr inbounds nuw i8, ptr %4, i64 296
  %18 = getelementptr inbounds nuw i8, ptr %4, i64 344
  tail call void @llvm.memset.p0.i64(ptr noundef nonnull align 8 dereferenceable(44) %17, i8 0, i64 44, i1 false)
  tail call void @llvm.memset.p0.i64(ptr noundef nonnull align 8 dereferenceable(44) %18, i8 0, i64 44, i1 false)
  br label %19

19:                                               ; preds = %16, %3
  %20 = getelementptr inbounds nuw i8, ptr %4, i64 400
  %21 = getelementptr inbounds nuw i8, ptr %0, i64 64
  %22 = load ptr, ptr %21, align 8
  %23 = tail call ptr @ExecInitNode(ptr noundef %22, ptr noundef %1, i32 noundef %2) #8
  %24 = getelementptr inbounds nuw i8, ptr %4, i64 72
  store ptr %23, ptr %24, align 8
  tail call void @ExecCreateScanSlotFromOuterPlan(ptr noundef %1, ptr noundef nonnull %4, ptr noundef nonnull @TTSOpsMinimalTuple) #8
  tail call void @ExecInitResultTupleSlotTL(ptr noundef nonnull %4, ptr noundef nonnull @TTSOpsMinimalTuple) #8
  %25 = getelementptr inbounds nuw i8, ptr %4, i64 136
  store ptr null, ptr %25, align 8
  %26 = load ptr, ptr %24, align 8
  %27 = tail call ptr @ExecGetResultType(ptr noundef %26) #8
  %28 = tail call ptr @MakeSingleTupleTableSlot(ptr noundef %27, ptr noundef nonnull @TTSOpsMinimalTuple) #8
  store ptr %28, ptr %12, align 8
  %29 = load ptr, ptr %24, align 8
  %30 = tail call ptr @ExecGetResultType(ptr noundef %29) #8
  %31 = tail call ptr @MakeSingleTupleTableSlot(ptr noundef %30, ptr noundef nonnull @TTSOpsMinimalTuple) #8
  store ptr %31, ptr %20, align 8
  ret ptr %4
}